; Function Attrs: mustprogress uwtable
define hidden noundef range(i64 0, -9223372036854775808) i64 @_ZN6memory19get_max_used_memoryEv() local_unnamed_addr #3 align 2 personality ptr @__gxx_personality_v0 {
  %1 = load ptr, ptr @_ZL12g_memory_mux, align 8, !tbaa !14
  %2 = tail call noundef i32 @pthread_mutex_lock(ptr noundef nonnull align 8 dereferenceable(40) %1) #25
  %.not.i.i = icmp eq i32 %2, 0
  br i1 %.not.i.i, label %_ZNSt10lock_guardISt5mutexEC2ERS0_.exit, label %3

3:                                                ; preds = %0
  tail call void @_ZSt20__throw_system_errori(i32 noundef %2) #26
  unreachable

_ZNSt10lock_guardISt5mutexEC2ERS0_.exit:          ; preds = %0
  %4 = load i64, ptr @_ZL22g_memory_max_used_size, align 8, !tbaa !12
  %5 = tail call noundef i32 @pthread_mutex_unlock(ptr noundef nonnull align 8 dereferenceable(40) %1) #25
  ret i64 %4
}